; Function Attrs: mustprogress nofree norecurse nosync nounwind willreturn memory(argmem: write) uwtable
define hidden void @_ZN2cv25VariationalRefinementImpl23ComputeDataTerm_ParBodyC2ERS0_iiRNS0_14RedBlackBufferES4_b(ptr noundef nonnull writeonly align 8 captures(none) dereferenceable(49) initializes((0, 28), (32, 49)) %0, ptr noundef nonnull align 8 dereferenceable(5160) %1, i32 noundef %2, i32 noundef %3, ptr noundef nonnull align 8 dereferenceable(208) %4, ptr noundef nonnull align 8 dereferenceable(208) %5, i1 noundef zeroext %6) unnamed_addr #7 align 2 {
  %8 = zext i1 %6 to i8
  store ptr getelementptr inbounds nuw inrange(-16, 24) (i8, ptr @_ZTVN2cv25VariationalRefinementImpl23ComputeDataTerm_ParBodyE, i64 16), ptr %0, align 8, !tbaa !3
  %9 = getelementptr inbounds nuw i8, ptr %0, i64 8
  store ptr %1, ptr %9, align 8, !tbaa !95
  %10 = getelementptr inbounds nuw i8, ptr %0, i64 16
  store i32 %2, ptr %10, align 8, !tbaa !99
  %11 = getelementptr inbounds nuw i8, ptr %0, i64 24
  store i32 %3, ptr %11, align 8, !tbaa !100
  %12 = getelementptr inbounds nuw i8, ptr %0, i64 32
  store ptr %4, ptr %12, align 8, !tbaa !101
  %13 = getelementptr inbounds nuw i8, ptr %0, i64 40
  store ptr %5, ptr %13, align 8, !tbaa !102
  %14 = getelementptr inbounds nuw i8, ptr %0, i64 48
  store i8 %8, ptr %14, align 8, !tbaa !103
  %15 = sitofp i32 %3 to double
  %16 = sitofp i32 %2 to double
  %17 = fdiv double %15, %16
  %18 = tail call double @llvm.ceil.f64(double %17)
  %19 = fptosi double %18 to i32
  %20 = getelementptr inbounds nuw i8, ptr %0, i64 20
  store i32 %19, ptr %20, align 4, !tbaa !104
  ret void
}